target datalayout = "e-m:e-p270:32:32-p271:32:32-p272:64:64-i64:64-i128:128-f80:128-n8:16:32:64-S128"
target triple = "x86_64-pc-linux-gnu"

%class.FormatStringLogMessage = type { %class.FormatBuffer }
%class.FormatBuffer = type { %class.FormatBufferBase, [256 x i8] }
%class.FormatBufferBase = type { ptr }
%class.EventLogBase = type { %class.EventLog, %class.Mutex, ptr, ptr, i32, i32, i32, ptr }
%class.EventLog = type { ptr, ptr }
%class.Mutex = type { ptr, %class.PlatformMonitor, ptr }
%class.PlatformMonitor = type { %class.PlatformMutex, %union.pthread_cond_t }
%class.PlatformMutex = type { %union.pthread_mutex_t }
%union.pthread_mutex_t = type { %struct.__pthread_mutex_s }
%struct.__pthread_mutex_s = type { i32, i32, i32, i32, i32, i16, i16, %struct.__pthread_internal_list }
%struct.__pthread_internal_list = type { ptr, ptr }
%union.pthread_cond_t = type { %struct.__pthread_cond_s }
%struct.__pthread_cond_s = type { %union.__atomic_wide_counter, %union.__atomic_wide_counter, [2 x i32], [2 x i32], i32, i32, [2 x i32] }
%union.__atomic_wide_counter = type { i64 }
%"class.EventLogBase<FormatStringLogMessage<256>>::EventRecord" = type { double, ptr, %class.FormatStringLogMessage }

@.str = private unnamed_addr constant [19 x i8] c"Compilation events\00", align 1
@.str.4 = private unnamed_addr constant [4 x i8] c"jit\00", align 1
@LogEventsBufferEntries = external global i32, align 4

; Function Attrs: mustprogress nounwind uwtable
define linkonce_odr hidden void @_ZN16FormatBufferBaseC2EPc(ptr noundef nonnull align 8 dereferenceable(8) %0, ptr noundef %1) unnamed_addr #1 comdat align 2 {
  %3 = alloca ptr, align 8
  %4 = alloca ptr, align 8
  store ptr %0, ptr %3, align 8
  store ptr %1, ptr %4, align 8
  %5 = load ptr, ptr %3, align 8
  %6 = getelementptr inbounds %class.FormatBufferBase, ptr %5, i32 0, i32 0
  %7 = load ptr, ptr %4, align 8
  store ptr %7, ptr %6, align 8
  ret void
}

; Function Attrs: mustprogress nounwind uwtable
define linkonce_odr hidden void @_ZN12FormatBufferILm256EEC2Ev(ptr noundef nonnull align 8 dereferenceable(264) %0) unnamed_addr #1 comdat align 2 {
  %2 = alloca ptr, align 8
  store ptr %0, ptr %2, align 8
  %3 = load ptr, ptr %2, align 8
  %4 = getelementptr inbounds %class.FormatBuffer, ptr %3, i32 0, i32 1
  %5 = getelementptr inbounds [256 x i8], ptr %4, i64 0, i64 0
  call void @_ZN16FormatBufferBaseC2EPc(ptr noundef nonnull align 8 dereferenceable(8) %3, ptr noundef %5)
  %6 = getelementptr inbounds %class.FormatBufferBase, ptr %3, i32 0, i32 0
  %7 = load ptr, ptr %6, align 8
  %8 = getelementptr inbounds i8, ptr %7, i64 0
  store i8 0, ptr %8, align 1
  ret void
}

; Function Attrs: mustprogress nounwind uwtable
define linkonce_odr hidden noundef zeroext i1 @_ZltN5Mutex4RankES0_(i32 noundef %0, i32 noundef %1) #1 comdat {
  %3 = alloca i32, align 4
  %4 = alloca i32, align 4
  store i32 %0, ptr %3, align 4
  store i32 %1, ptr %4, align 4
  %5 = load i32, ptr %3, align 4
  %6 = load i32, ptr %4, align 4
  %7 = icmp slt i32 %5, %6
  ret i1 %7
}

; Function Attrs: mustprogress nounwind uwtable
define linkonce_odr hidden void @_ZN22FormatStringLogMessageILm256EEC2Ev(ptr noundef nonnull align 8 dereferenceable(264) %0) unnamed_addr #1 comdat align 2 {
  %2 = alloca ptr, align 8
  store ptr %0, ptr %2, align 8
  %3 = load ptr, ptr %2, align 8
  call void @_ZN12FormatBufferILm256EEC2Ev(ptr noundef nonnull align 8 dereferenceable(264) %3)
  ret void
}

; Function Attrs: mustprogress nounwind uwtable
define linkonce_odr hidden noundef zeroext i1 @_ZgtN5Mutex4RankES0_(i32 noundef %0, i32 noundef %1) #1 comdat {
  %3 = alloca i32, align 4
  %4 = alloca i32, align 4
  store i32 %0, ptr %3, align 4
  store i32 %1, ptr %4, align 4
  %5 = load i32, ptr %4, align 4
  %6 = load i32, ptr %3, align 4
  %7 = call noundef zeroext i1 @_ZltN5Mutex4RankES0_(i32 noundef %5, i32 noundef %6)
  ret i1 %7
}

; Function Attrs: mustprogress nounwind uwtable
define linkonce_odr hidden void @_ZN12EventLogBaseI22FormatStringLogMessageILm256EEE11EventRecordIS1_EC2Ev(ptr noundef nonnull align 8 dereferenceable(280) %0) unnamed_addr #1 comdat align 2 {
  %2 = alloca ptr, align 8
  store ptr %0, ptr %2, align 8
  %3 = load ptr, ptr %2, align 8
  %4 = getelementptr inbounds %"class.EventLogBase<FormatStringLogMessage<256>>::EventRecord", ptr %3, i32 0, i32 2
  call void @_ZN22FormatStringLogMessageILm256EEC2Ev(ptr noundef nonnull align 8 dereferenceable(264) %4)
  ret void
}

; Function Attrs: mustprogress nounwind uwtable
define linkonce_odr hidden void @_ZN5MutexC2ENS_4RankEPKc(ptr noundef nonnull align 8 dereferenceable(104) %0, i32 noundef %1, ptr noundef %2) unnamed_addr #1 comdat align 2 {
  %4 = alloca ptr, align 8
  %5 = alloca i32, align 4
  %6 = alloca ptr, align 8
  store ptr %0, ptr %4, align 8
  store i32 %1, ptr %5, align 4
  store ptr %2, ptr %6, align 8
  %7 = load ptr, ptr %4, align 8
  %8 = load i32, ptr %5, align 4
  %9 = load ptr, ptr %6, align 8
  %10 = load i32, ptr %5, align 4
  %11 = call noundef zeroext i1 @_ZgtN5Mutex4RankES0_(i32 noundef %10, i32 noundef 21)
  %12 = select i1 %11, i1 false, i1 true
  call void @_ZN5MutexC2ENS_4RankEPKcb(ptr noundef nonnull align 8 dereferenceable(104) %7, i32 noundef %8, ptr noundef %9, i1 noundef zeroext %12)
  ret void
}

; Function Attrs: mustprogress nounwind uwtable
define linkonce_odr hidden void @_ZN12EventLogBaseI22FormatStringLogMessageILm256EEEC2EPKcS4_i(ptr noundef nonnull align 8 dereferenceable(160) %0, ptr noundef %1, ptr noundef %2, i32 noundef %3) unnamed_addr #1 comdat align 2 {
  %5 = alloca i64, align 8
  %6 = alloca i8, align 1
  %7 = alloca i64, align 8
  %8 = alloca ptr, align 8
  %9 = alloca ptr, align 8
  %10 = alloca ptr, align 8
  %11 = alloca i32, align 4
  store ptr %0, ptr %8, align 8
  store ptr %1, ptr %9, align 8
  store ptr %2, ptr %10, align 8
  store i32 %3, ptr %11, align 4
  %12 = load ptr, ptr %8, align 8
  call void @_ZN8EventLogC2Ev(ptr noundef nonnull align 8 dereferenceable(16) %12)
  store ptr getelementptr inbounds inrange(-16, 24) ({ [5 x ptr] }, ptr @_ZTV12EventLogBaseI22FormatStringLogMessageILm256EEE, i32 0, i32 0, i32 2), ptr %12, align 8
  %13 = getelementptr inbounds %class.EventLogBase, ptr %12, i32 0, i32 1
  %14 = load ptr, ptr %9, align 8
  call void @_ZN5MutexC2ENS_4RankEPKc(ptr noundef nonnull align 8 dereferenceable(104) %13, i32 noundef 0, ptr noundef %14)
  %15 = getelementptr inbounds %class.EventLogBase, ptr %12, i32 0, i32 2
  %16 = load ptr, ptr %9, align 8
  store ptr %16, ptr %15, align 8
  %17 = getelementptr inbounds %class.EventLogBase, ptr %12, i32 0, i32 3
  %18 = load ptr, ptr %10, align 8
  store ptr %18, ptr %17, align 8
  %19 = getelementptr inbounds %class.EventLogBase, ptr %12, i32 0, i32 4
  %20 = load i32, ptr %11, align 4
  store i32 %20, ptr %19, align 8
  %21 = getelementptr inbounds %class.EventLogBase, ptr %12, i32 0, i32 5
  store i32 0, ptr %21, align 4
  %22 = getelementptr inbounds %class.EventLogBase, ptr %12, i32 0, i32 6
  store i32 0, ptr %22, align 8
  %23 = load i32, ptr %11, align 4
  %24 = sext i32 %23 to i64
  %25 = call { i64, i1 } @llvm.umul.with.overflow.i64(i64 %24, i64 280)
  %26 = extractvalue { i64, i1 } %25, 1
  %27 = extractvalue { i64, i1 } %25, 0
  %28 = select i1 %26, i64 -1, i64 %27
  store i64 %28, ptr %7, align 8
  %29 = load i64, ptr %7, align 8
  store i64 %29, ptr %5, align 8
  store i8 9, ptr %6, align 1
  %30 = load i64, ptr %5, align 8
  %31 = load i8, ptr %6, align 1
  %32 = call noundef ptr @_Z12AllocateHeapm8MEMFLAGSN17AllocFailStrategy13AllocFailEnumE(i64 noundef %30, i8 noundef zeroext %31, i32 noundef 0) #7
  %33 = icmp eq i64 %24, 0
  br i1 %33, label %40, label %34

34:                                               ; preds = %4
  %35 = getelementptr inbounds %"class.EventLogBase<FormatStringLogMessage<256>>::EventRecord", ptr %32, i64 %24
  br label %36

36:                                               ; preds = %36, %34
  %37 = phi ptr [ %32, %34 ], [ %38, %36 ]
  call void @_ZN12EventLogBaseI22FormatStringLogMessageILm256EEE11EventRecordIS1_EC2Ev(ptr noundef nonnull align 8 dereferenceable(280) %37)
  %38 = getelementptr inbounds %"class.EventLogBase<FormatStringLogMessage<256>>::EventRecord", ptr %37, i64 1
  %39 = icmp eq ptr %38, %35
  br i1 %39, label %40, label %36

40:                                               ; preds = %36, %4
  %41 = getelementptr inbounds %class.EventLogBase, ptr %12, i32 0, i32 7
  store ptr %32, ptr %41, align 8
  ret void
}

; Function Attrs: mustprogress nounwind uwtable
define linkonce_odr hidden void @_ZN20FormatStringEventLogILm256EEC2EPKcS2_i(ptr noundef nonnull align 8 dereferenceable(160) %0, ptr noundef %1, ptr noundef %2, i32 noundef %3) unnamed_addr #1 comdat align 2 {
  %5 = alloca ptr, align 8
  %6 = alloca ptr, align 8
  %7 = alloca ptr, align 8
  %8 = alloca i32, align 4
  store ptr %0, ptr %5, align 8
  store ptr %1, ptr %6, align 8
  store ptr %2, ptr %7, align 8
  store i32 %3, ptr %8, align 4
  %9 = load ptr, ptr %5, align 8
  %10 = load ptr, ptr %6, align 8
  %11 = load ptr, ptr %7, align 8
  %12 = load i32, ptr %8, align 4
  call void @_ZN12EventLogBaseI22FormatStringLogMessageILm256EEEC2EPKcS4_i(ptr noundef nonnull align 8 dereferenceable(160) %9, ptr noundef %10, ptr noundef %11, i32 noundef %12)
  store ptr getelementptr inbounds inrange(-16, 24) ({ [5 x ptr] }, ptr @_ZTV20FormatStringEventLogILm256EE, i32 0, i32 0, i32 2), ptr %9, align 8
  ret void
}

; Function Attrs: mustprogress nounwind uwtable
define hidden void @_ZN14CompilationLogC2Ev(ptr noundef nonnull align 8 dereferenceable(160) %0) unnamed_addr #1 align 2 {
  %2 = alloca ptr, align 8
  store ptr %0, ptr %2, align 8
  %3 = load ptr, ptr %2, align 8
  %4 = load i32, ptr @LogEventsBufferEntries, align 4
  call void @_ZN20FormatStringEventLogILm256EEC2EPKcS2_i(ptr noundef nonnull align 8 dereferenceable(160) %3, ptr noundef @.str, ptr noundef @.str.4, i32 noundef %4)
  store ptr getelementptr inbounds inrange(-16, 24) ({ [5 x ptr] }, ptr @_ZTV14CompilationLog, i32 0, i32 0, i32 2), ptr %3, align 8
  ret void
}