; Function Attrs: mustprogress nounwind uwtable
define hidden void @_ZN14CompilationLogC2Ev(ptr noundef nonnull align 8 dereferenceable(160) %0) unnamed_addr #0 align 2 {
  %2 = load i32, ptr @LogEventsBufferEntries, align 4
  tail call void @_ZN8EventLogC2Ev(ptr noundef nonnull align 8 dereferenceable(16) %0) #7
  store ptr getelementptr inbounds inrange(-16, 24) (i8, ptr @_ZTV12EventLogBaseI22FormatStringLogMessageILm256EEE, i64 16), ptr %0, align 8
  %3 = getelementptr inbounds i8, ptr %0, i64 16
  tail call void @_ZN5MutexC2ENS_4RankEPKcb(ptr noundef nonnull align 8 dereferenceable(104) %3, i32 noundef 0, ptr noundef nonnull @.str, i1 noundef zeroext true) #7
  %4 = getelementptr inbounds i8, ptr %0, i64 120
  store ptr @.str, ptr %4, align 8
  %5 = getelementptr inbounds i8, ptr %0, i64 128
  store ptr @.str.4, ptr %5, align 8
  %6 = getelementptr inbounds i8, ptr %0, i64 136
  store i32 %2, ptr %6, align 8
  %7 = getelementptr inbounds i8, ptr %0, i64 140
  store i32 0, ptr %7, align 4
  %8 = getelementptr inbounds i8, ptr %0, i64 144
  store i32 0, ptr %8, align 8
  %9 = sext i32 %2 to i64
  %10 = tail call { i64, i1 } @llvm.umul.with.overflow.i64(i64 %9, i64 280)
  %11 = extractvalue { i64, i1 } %10, 1
  %12 = extractvalue { i64, i1 } %10, 0
  %13 = select i1 %11, i64 -1, i64 %12
  %14 = tail call noundef ptr @_Z12AllocateHeapm8MEMFLAGSN17AllocFailStrategy13AllocFailEnumE(i64 noundef %13, i8 noundef zeroext 9, i32 noundef 0) #7
  %15 = icmp eq i32 %2, 0
  br i1 %15, label %_ZN20FormatStringEventLogILm256EEC2EPKcS2_i.exit, label %16

16:                                               ; preds = %1
  %17 = getelementptr inbounds %"class.EventLogBase<FormatStringLogMessage<256>>::EventRecord", ptr %14, i64 %9
  br label %18

18:                                               ; preds = %18, %16
  %19 = phi ptr [ %14, %16 ], [ %22, %18 ]
  %20 = getelementptr inbounds i8, ptr %19, i64 16
  %21 = getelementptr inbounds i8, ptr %19, i64 24
  store ptr %21, ptr %20, align 8
  store i8 0, ptr %21, align 1
  %22 = getelementptr inbounds i8, ptr %19, i64 280
  %23 = icmp eq ptr %22, %17
  br i1 %23, label %_ZN20FormatStringEventLogILm256EEC2EPKcS2_i.exit, label %18

_ZN20FormatStringEventLogILm256EEC2EPKcS2_i.exit: ; preds = %18, %1
  %24 = getelementptr inbounds i8, ptr %0, i64 152
  store ptr %14, ptr %24, align 8
  store ptr getelementptr inbounds inrange(-16, 24) (i8, ptr @_ZTV14CompilationLog, i64 16), ptr %0, align 8
  ret void
}